-----BEGIN RSA PRIVATE KEY-----
Proc-Type: 4,ENCRYPTED
DEK-Info: DES-EDE3-CBC,FBB42CDACFAAAAA8

jhdN5dv6PWwvnZmtWLtpXeIgF0Ksb+jbEc66UsZb6lmvRVIPdXe4Os+q5DaohuPX
zwpakRdAI2mlpLlWU8AZXu0aSHw898Ep8PkWh5gGKCGoDQTftRPZs9jxoCTtNP2Y
5aAfaXEepubZF9Yz37KDYzRM+U73C4wUm2ddtWJnyGlE43OrVsvE2jDaXrVunATH
h40iq04+ZuekX8zmK4RCiGtag37io4guS91eRQg7Q5isHnyOeKRj5P6TUWg2QOPX
gYB06pV8KGtsRrgO0VReinsUHARWIKTCrhbCq4w+eopinB0B8LpGJS+yf+VeqGTg
cylMtughc2Z8TZ6CrLxbIcFj/ggrz9+mKsS9piIK5NaBK6pIV2p4NjnwSD6ts7Ee
XnCPh2yTlehP/X3oisgsnfqRJViExHKAodul/vtEK+CS8J1o+KHHnVFIJ4/SqOcx
3KhHreew2ds6OMTDQ9iBUKALAOe0bfmQ8iXryZNg7NlNvx9GuGlNP/J1vETv+Zku
mkWOaZw8415nXtDy25mjnpQqr0K7OiqsLi7+NRKaRjLIyV9Bl5eEXLlLCmLs7Hxn
/H2gRAgJxxJ8feStVz5MVfuJ2f5N4Bve/iWIjmOqP3Hk98Cru7SaHzNQoZo058Yq
oKdkGlBP2Vu3RajTKF/PdrALpjSvSgWuATNk6xdYDatXc1up6o/N4jR0wg5yRQ8O
Et0uTV10UCPuRugOfVPhwz2S9/XjVTcWYIdtercPrAq0jk6IbwQDOErn84wAW1ON
WW7fHyvqFwKOACqfhiw33qiK5XpzodhD2nI13l2ZJGuxf0g+W1jjqg==
-----END RSA PRIVATE KEY-----
-----BEGIN CERTIFICATE REQUEST-----
MIIBnjCCAQcCAQAwXjELMAkGA1UEBhMCR0IxEjAQBgNVBAgTCUJlcmtzaGlyZTEQ
MA4GA1UEBxMHTmV3YnVyeTEXMBUGA1UEChMOTXkgQ29tcGFueSBMdGQxEDAOBgNV
BAMTB2NoaWNrZW4wgZ8wDQYJKoZIhvcNAQEBBQADgY0AMIGJAoGBAMl05jbxz2Eb
WP2R7vIv9OFKq6241DHzcm7BXvx15EfbXaXCrHTKJrXcdxdZno7f0QgVDsiJLRWs
Z+IFzNYK12ANh1aqbwCNNp7efLwBvFDWop8GWAAyEJDidbCq3pY3D23LVmMZO5U6
j2CxiABVG5jH05XyVhKyhwSLdnLJRaJPAgMBAAGgADANBgkqhkiG9w0BAQQFAAOB
gQAVffOXDy1kvYHj3pz73Aefzg3z89GnEGZP9zZUSAyechNr+pd+CoDUhoz/++kO
p4PMouxuoxIAKcpwMqeQrQ0F3hm/a/6wTXiQZYwnJkFYzk4qCAqb6qXT+rMi0Izj
yhTDUdxAOn5SeLTJqnJeHL6xP6sBTEqSzkBwM8NuEIk6aw==
-----END CERTIFICATE REQUEST-----
Certificate:
    Data:
        Version: 3 (0x2)
        Serial Number: 1 (0x1)
        Signature Algorithm: md5WithRSAEncryption
        Issuer: C=GB, ST=Berkshire, L=Newbury, O=My Company Ltd
        Validity
            Not Before: Feb 20 15:49:27 2004 GMT
            Not After : Feb 19 15:49:27 2005 GMT
        Subject: C=GB, ST=Berkshire, L=Newbury, O=My Company Ltd, CN=chicken
        Subject Public Key Info:
            Public Key Algorithm: rsaEncryption
            RSA Public Key: (1024 bit)
                Modulus (1024 bit):
                    00:c9:74:e6:36:f1:cf:61:1b:58:fd:91:ee:f2:2f:
                    f4:e1:4a:ab:ad:b8:d4:31:f3:72:6e:c1:5e:fc:75:
                    e4:47:db:5d:a5:c2:ac:74:ca:26:b5:dc:77:17:59:
                    9e:8e:df:d1:08:15:0e:c8:89:2d:15:ac:67:e2:05:
                    cc:d6:0a:d7:60:0d:87:56:aa:6f:00:8d:36:9e:de:
                    7c:bc:01:bc:50:d6:a2:9f:06:58:00:32:10:90:e2:
                    75:b0:aa:de:96:37:0f:6d:cb:56:63:19:3b:95:3a:
                    8f:60:b1:88:00:55:1b:98:c7:d3:95:f2:56:12:b2:
                    87:04:8b:76:72:c9:45:a2:4f
                Exponent: 65537 (0x10001)
        X509v3 extensions:
            X509v3 Basic Constraints: 
            CA:FALSE
            Netscape Comment: 
            OpenSSL Generated Certificate
            X509v3 Subject Key Identifier: 
            86:E7:2F:06:11:DD:BC:9D:C0:D0:FB:BD:62:93:AA:AC:1D:F9:3B:72
            X509v3 Authority Key Identifier: 
            keyid:1C:6C:3A:A6:D6:C1:EB:A6:6B:8E:64:CC:C7:B4:0A:F5:38:B6:72:DF
            DirName:/C=GB/ST=Berkshire/L=Newbury/O=My Company Ltd
            serial:00

    Signature Algorithm: md5WithRSAEncryption
        3d:47:ad:7d:a0:30:4a:e6:28:f7:e9:64:b8:6e:10:5f:8b:ae:
        ef:62:94:70:03:a1:e6:94:db:4d:b5:b2:9d:76:63:26:42:b1:
        d6:a6:f2:4c:87:0a:58:2d:1d:a2:ca:a5:23:6c:68:43:d9:24:
        ba:d3:20:c7:ba:8a:bb:6b:72:04:fb:cb:91:84:9c:be:37:95:
        3a:af:93:cd:82:74:18:57:9c:ed:78:0a:48:b7:3e:0d:77:8c:
        07:13:2d:5b:22:3e:08:94:f5:0d:ed:73:fc:47:50:3c:74:57:
        e0:59:cf:f7:3d:10:97:6f:fc:cd:93:86:ea:b8:91:ef:b6:4f:
        a6:4b
-----BEGIN CERTIFICATE-----
MIIC8jCCAlugAwIBAgIBATANBgkqhkiG9w0BAQQFADBMMQswCQYDVQQGEwJHQjES
MBAGA1UECBMJQmVya3NoaXJlMRAwDgYDVQQHEwdOZXdidXJ5MRcwFQYDVQQKEw5N
eSBDb21wYW55IEx0ZDAeFw0wNDAyMjAxNTQ5MjdaFw0wNTAyMTkxNTQ5MjdaMF4x
CzAJBgNVBAYTAkdCMRIwEAYDVQQIEwlCZXJrc2hpcmUxEDAOBgNVBAcTB05ld2J1
cnkxFzAVBgNVBAoTDk15IENvbXBhbnkgTHRkMRAwDgYDVQQDEwdjaGlja2VuMIGf
MA0GCSqGSIb3DQEBAQUAA4GNADCBiQKBgQDJdOY28c9hG1j9ke7yL/ThSqutuNQx
83JuwV78deRH212lwqx0yia13HcXWZ6O39EIFQ7IiS0VrGfiBczWCtdgDYdWqm8A
jTae3ny8AbxQ1qKfBlgAMhCQ4nWwqt6WNw9ty1ZjGTuVOo9gsYgAVRuYx9OV8lYS
socEi3ZyyUWiTwIDAQABo4HRMIHOMAkGA1UdEwQCMAAwLAYJYIZIAYb4QgENBB8W
HU9wZW5TU0wgR2VuZXJhdGVkIENlcnRpZmljYXRlMB0GA1UdDgQWBBSG5y8GEd28
ncDQ+71ik6qsHfk7cjB0BgNVHSMEbTBrgBQcbDqm1sHrpmuOZMzHtAr1OLZy36FQ
pE4wTDELMAkGA1UEBhMCR0IxEjAQBgNVBAgTCUJlcmtzaGlyZTEQMA4GA1UEBxMH
TmV3YnVyeTEXMBUGA1UEChMOTXkgQ29tcGFueSBMdGSCAQAwDQYJKoZIhvcNAQEE
BQADgYEAPUetfaAwSuYo9+lkuG4QX4uu72KUcAOh5pTbTbWynXZjJkKx1qbyTIcK
WC0dosqlI2xoQ9kkutMgx7qKu2tyBPvLkYScvjeVOq+TzYJ0GFec7XgKSLc+DXeM
BxMtWyI+CJT1De1z/EdQPHRX4FnP9z0Ql2/8zZOG6riR77ZPpks=
-----END CERTIFICATE-----
